; Function Attrs: inlinehint mustprogress nounwind uwtable
define internal fastcc void @_ZN3ue212_GLOBAL__N_113TeddyCompilerD2Ev(ptr noundef nonnull align 8 dereferenceable(73) %0) unnamed_addr #3 align 2 personality ptr @__gxx_personality_v0 {
  %2 = getelementptr inbounds nuw i8, ptr %0, i64 24
  %3 = getelementptr inbounds nuw i8, ptr %0, i64 40
  %4 = load ptr, ptr %3, align 8
  invoke void @_ZNSt8_Rb_treeIjSt4pairIKjSt6vectorIjSaIjEEESt10_Select1stIS5_ESt4lessIjESaIS5_EE8_M_eraseEPSt13_Rb_tree_nodeIS5_E(ptr noundef nonnull align 8 dereferenceable(48) %2, ptr noundef %4)
          to label %_ZNSt3mapIjSt6vectorIjSaIjEESt4lessIjESaISt4pairIKjS2_EEED2Ev.exit unwind label %5

5:                                                ; preds = %1
  %6 = landingpad { ptr, i32 }
          catch ptr null
  %7 = extractvalue { ptr, i32 } %6, 0
  tail call void @__clang_call_terminate(ptr %7) #22
  unreachable

_ZNSt3mapIjSt6vectorIjSaIjEESt4lessIjESaISt4pairIKjS2_EEED2Ev.exit: ; preds = %1
  ret void
}